target datalayout = "e-m:e-p270:32:32-p271:32:32-p272:64:64-i64:64-i128:128-f80:128-n8:16:32:64-S128"
target triple = "x86_64-pc-linux-gnu"

%class.TypeInt = type { %class.TypeInteger.base, i32, i32 }
%class.TypeInteger.base = type { %class.Type.base, i16 }
%class.Type.base = type <{ ptr, ptr, i32 }>

@_ZN7TypeInt5CC_LTE = external global ptr, align 8
@_ZN7TypeInt5CC_GTE = external global ptr, align 8
@_ZN7TypeInt5CC_EQE = external global ptr, align 8
@_ZN7TypeInt5CC_LEE = external global ptr, align 8
@_ZN7TypeInt5CC_GEE = external global ptr, align 8
@_ZN7TypeInt2CCE = external global ptr, align 8

; Function Attrs: mustprogress nounwind uwtable
define linkonce_odr hidden noundef zeroext i1 @_ZNK7TypeInt6is_conEv(ptr noundef nonnull align 8 dereferenceable(32) %0) #1 comdat align 2 {
  %2 = alloca ptr, align 8
  store ptr %0, ptr %2, align 8
  %3 = load ptr, ptr %2, align 8
  %4 = getelementptr inbounds %class.TypeInt, ptr %3, i32 0, i32 1
  %5 = load i32, ptr %4, align 8
  %6 = getelementptr inbounds %class.TypeInt, ptr %3, i32 0, i32 2
  %7 = load i32, ptr %6, align 4
  %8 = icmp eq i32 %5, %7
  ret i1 %8
}

; Function Attrs: mustprogress nounwind uwtable
define linkonce_odr hidden noundef ptr @_ZNK4Type6is_intEv(ptr noundef nonnull align 8 dereferenceable(20) %0) #1 comdat align 2 {
  %2 = alloca ptr, align 8
  store ptr %0, ptr %2, align 8
  %3 = load ptr, ptr %2, align 8
  ret ptr %3
}

; Function Attrs: mustprogress nounwind uwtable
define hidden noundef ptr @_ZNK8CmpINode3subEPK4TypeS2_(ptr noundef nonnull align 8 dereferenceable(52) %0, ptr noundef %1, ptr noundef %2) unnamed_addr #1 align 2 {
  %4 = alloca ptr, align 8
  %5 = alloca ptr, align 8
  %6 = alloca ptr, align 8
  %7 = alloca ptr, align 8
  %8 = alloca ptr, align 8
  %9 = alloca ptr, align 8
  store ptr %0, ptr %5, align 8
  store ptr %1, ptr %6, align 8
  store ptr %2, ptr %7, align 8
  %10 = load ptr, ptr %6, align 8
  %11 = call noundef ptr @_ZNK4Type6is_intEv(ptr noundef nonnull align 8 dereferenceable(20) %10)
  store ptr %11, ptr %8, align 8
  %12 = load ptr, ptr %7, align 8
  %13 = call noundef ptr @_ZNK4Type6is_intEv(ptr noundef nonnull align 8 dereferenceable(20) %12)
  store ptr %13, ptr %9, align 8
  %14 = load ptr, ptr %8, align 8
  %15 = getelementptr inbounds %class.TypeInt, ptr %14, i32 0, i32 2
  %16 = load i32, ptr %15, align 4
  %17 = load ptr, ptr %9, align 8
  %18 = getelementptr inbounds %class.TypeInt, ptr %17, i32 0, i32 1
  %19 = load i32, ptr %18, align 8
  %20 = icmp slt i32 %16, %19
  br i1 %20, label %21, label %23

21:                                               ; preds = %3
  %22 = load ptr, ptr @_ZN7TypeInt5CC_LTE, align 8
  store ptr %22, ptr %4, align 8
  br label %67

23:                                               ; preds = %3
  %24 = load ptr, ptr %8, align 8
  %25 = getelementptr inbounds %class.TypeInt, ptr %24, i32 0, i32 1
  %26 = load i32, ptr %25, align 8
  %27 = load ptr, ptr %9, align 8
  %28 = getelementptr inbounds %class.TypeInt, ptr %27, i32 0, i32 2
  %29 = load i32, ptr %28, align 4
  %30 = icmp sgt i32 %26, %29
  br i1 %30, label %31, label %33

31:                                               ; preds = %23
  %32 = load ptr, ptr @_ZN7TypeInt5CC_GTE, align 8
  store ptr %32, ptr %4, align 8
  br label %67

33:                                               ; preds = %23
  %34 = load ptr, ptr %8, align 8
  %35 = call noundef zeroext i1 @_ZNK7TypeInt6is_conEv(ptr noundef nonnull align 8 dereferenceable(32) %34)
  br i1 %35, label %36, label %41

36:                                               ; preds = %33
  %37 = load ptr, ptr %9, align 8
  %38 = call noundef zeroext i1 @_ZNK7TypeInt6is_conEv(ptr noundef nonnull align 8 dereferenceable(32) %37)
  br i1 %38, label %39, label %41

39:                                               ; preds = %36
  %40 = load ptr, ptr @_ZN7TypeInt5CC_EQE, align 8
  store ptr %40, ptr %4, align 8
  br label %67

41:                                               ; preds = %36, %33
  %42 = load ptr, ptr %8, align 8
  %43 = getelementptr inbounds %class.TypeInt, ptr %42, i32 0, i32 2
  %44 = load i32, ptr %43, align 4
  %45 = load ptr, ptr %9, align 8
  %46 = getelementptr inbounds %class.TypeInt, ptr %45, i32 0, i32 1
  %47 = load i32, ptr %46, align 8
  %48 = icmp eq i32 %44, %47
  br i1 %48, label %49, label %51

49:                                               ; preds = %41
  %50 = load ptr, ptr @_ZN7TypeInt5CC_LEE, align 8
  store ptr %50, ptr %4, align 8
  br label %67

51:                                               ; preds = %41
  %52 = load ptr, ptr %8, align 8
  %53 = getelementptr inbounds %class.TypeInt, ptr %52, i32 0, i32 1
  %54 = load i32, ptr %53, align 8
  %55 = load ptr, ptr %9, align 8
  %56 = getelementptr inbounds %class.TypeInt, ptr %55, i32 0, i32 2
  %57 = load i32, ptr %56, align 4
  %58 = icmp eq i32 %54, %57
  br i1 %58, label %59, label %61

59:                                               ; preds = %51
  %60 = load ptr, ptr @_ZN7TypeInt5CC_GEE, align 8
  store ptr %60, ptr %4, align 8
  br label %67

61:                                               ; preds = %51
  br label %62

62:                                               ; preds = %61
  br label %63

63:                                               ; preds = %62
  br label %64

64:                                               ; preds = %63
  br label %65

65:                                               ; preds = %64
  %66 = load ptr, ptr @_ZN7TypeInt2CCE, align 8
  store ptr %66, ptr %4, align 8
  br label %67

67:                                               ; preds = %65, %59, %49, %39, %31, %21
  %68 = load ptr, ptr %4, align 8
  ret ptr %68
}