; Function Attrs: mustprogress nofree norecurse nosync nounwind willreturn memory(read, inaccessiblemem: none) uwtable
define hidden noundef ptr @_ZNK8CmpINode3subEPK4TypeS2_(ptr nocapture noundef nonnull readnone align 8 dereferenceable(52) %0, ptr nocapture noundef readonly %1, ptr nocapture noundef readonly %2) unnamed_addr #4 align 2 {
  %4 = getelementptr inbounds i8, ptr %1, i64 28
  %5 = load i32, ptr %4, align 4
  %6 = getelementptr inbounds i8, ptr %2, i64 24
  %7 = load i32, ptr %6, align 8
  %8 = icmp slt i32 %5, %7
  br i1 %8, label %22, label %9

9:                                                ; preds = %3
  %10 = getelementptr inbounds i8, ptr %1, i64 24
  %11 = load i32, ptr %10, align 8
  %12 = getelementptr inbounds i8, ptr %2, i64 28
  %13 = load i32, ptr %12, align 4
  %14 = icmp sgt i32 %11, %13
  br i1 %14, label %22, label %15

15:                                               ; preds = %9
  %16 = icmp eq i32 %11, %5
  %17 = icmp eq i32 %7, %13
  %or.cond = and i1 %16, %17
  br i1 %or.cond, label %22, label %18

18:                                               ; preds = %15
  %19 = icmp eq i32 %5, %7
  br i1 %19, label %22, label %20

20:                                               ; preds = %18
  %21 = icmp eq i32 %11, %13
  %_ZN7TypeInt5CC_GEE._ZN7TypeInt2CCE = select i1 %21, ptr @_ZN7TypeInt5CC_GEE, ptr @_ZN7TypeInt2CCE
  br label %22

22:                                               ; preds = %15, %20, %18, %9, %3
  %.0.in = phi ptr [ @_ZN7TypeInt5CC_LTE, %3 ], [ @_ZN7TypeInt5CC_GTE, %9 ], [ @_ZN7TypeInt5CC_LEE, %18 ], [ %_ZN7TypeInt5CC_GEE._ZN7TypeInt2CCE, %20 ], [ @_ZN7TypeInt5CC_EQE, %15 ]
  %.0 = load ptr, ptr %.0.in, align 8
  ret ptr %.0
}